target datalayout = "e-m:e-p270:32:32-p271:32:32-p272:64:64-i64:64-i128:128-f80:128-n8:16:32:64-S128"
target triple = "x86_64-pc-linux-gnu"

%struct._urb_info_t = type { i16, i16, i8, i32, i8, i32, i8, i8, i8, i32, ptr, ptr }
%struct._usb_conv_info_t = type { i8, i16, i16, i16, i16, i8, i16, i32, i16, i8, ptr, ptr, i32, ptr }

@hf_ac_if_input_terminalid = internal global i32 0, align 4
@hf_ac_if_input_terminaltype = internal global i32 0, align 4
@hf_ac_if_input_assocterminal = internal global i32 0, align 4
@hf_ac_if_input_csourceid = internal global i32 0, align 4
@hf_ac_if_input_nrchannels = internal global i32 0, align 4
@hf_ac_if_input_wchannelconfig = internal global i32 0, align 4
@hf_ac_if_input_bmchannelconfig = internal global i32 0, align 4
@hf_ac_if_input_channelnames = internal global i32 0, align 4
@hf_ac_if_input_controls = internal global i32 0, align 4
@hf_ac_if_input_terminal = internal global i32 0, align 4
@ett_ac_if_input_wchannelconfig = internal global i32 0, align 4
@ett_ac_if_input_bmchannelconfig = internal global i32 0, align 4
@ett_ac_if_input_controls = internal global i32 0, align 4

; Function Attrs: null_pointer_is_valid sspstrong uwtable
define internal i32 @dissect_ac_if_input_terminal(ptr noundef %0, i32 noundef %1, ptr noundef %2, ptr noundef %3, ptr noundef %4) #1 {
  %6 = alloca i32, align 4
  %7 = alloca ptr, align 8
  %8 = alloca i32, align 4
  %9 = alloca ptr, align 8
  %10 = alloca ptr, align 8
  %11 = alloca ptr, align 8
  %12 = alloca i32, align 4
  %13 = alloca i32, align 4
  store ptr %0, ptr %7, align 8
  store i32 %1, ptr %8, align 4
  store ptr %2, ptr %9, align 8
  store ptr %3, ptr %10, align 8
  store ptr %4, ptr %11, align 8
  call void @llvm.lifetime.start.p0(i64 4, ptr %12) #11
  %14 = load ptr, ptr %11, align 8
  %15 = getelementptr inbounds nuw %struct._urb_info_t, ptr %14, i32 0, i32 11
  %16 = load ptr, ptr %15, align 8
  %17 = getelementptr inbounds nuw %struct._usb_conv_info_t, ptr %16, i32 0, i32 4
  %18 = load i16, ptr %17, align 8
  %19 = zext i16 %18 to i32
  %20 = icmp eq i32 %19, 0
  br i1 %20, label %30, label %21

21:                                               ; preds = %5
  %22 = load ptr, ptr %11, align 8
  %23 = getelementptr inbounds nuw %struct._urb_info_t, ptr %22, i32 0, i32 11
  %24 = load ptr, ptr %23, align 8
  %25 = getelementptr inbounds nuw %struct._usb_conv_info_t, ptr %24, i32 0, i32 4
  %26 = load i16, ptr %25, align 8
  %27 = zext i16 %26 to i32
  %28 = icmp eq i32 %27, 32
  br i1 %28, label %30, label %29

29:                                               ; preds = %21
  store i32 0, ptr %6, align 4
  store i32 1, ptr %13, align 4
  br label %145

30:                                               ; preds = %21, %5
  %31 = load i32, ptr %8, align 4
  store i32 %31, ptr %12, align 4
  %32 = load ptr, ptr %10, align 8
  %33 = load i32, ptr @hf_ac_if_input_terminalid, align 4
  %34 = load ptr, ptr %7, align 8
  %35 = load i32, ptr %8, align 4
  %36 = call ptr @proto_tree_add_item(ptr noundef %32, i32 noundef %33, ptr noundef %34, i32 noundef %35, i32 noundef 1, i32 noundef -2147483648)
  %37 = load i32, ptr %8, align 4
  %38 = add i32 %37, 1
  store i32 %38, ptr %8, align 4
  %39 = load ptr, ptr %10, align 8
  %40 = load i32, ptr @hf_ac_if_input_terminaltype, align 4
  %41 = load ptr, ptr %7, align 8
  %42 = load i32, ptr %8, align 4
  %43 = call ptr @proto_tree_add_item(ptr noundef %39, i32 noundef %40, ptr noundef %41, i32 noundef %42, i32 noundef 2, i32 noundef -2147483648)
  %44 = load i32, ptr %8, align 4
  %45 = add i32 %44, 2
  store i32 %45, ptr %8, align 4
  %46 = load ptr, ptr %10, align 8
  %47 = load i32, ptr @hf_ac_if_input_assocterminal, align 4
  %48 = load ptr, ptr %7, align 8
  %49 = load i32, ptr %8, align 4
  %50 = call ptr @proto_tree_add_item(ptr noundef %46, i32 noundef %47, ptr noundef %48, i32 noundef %49, i32 noundef 1, i32 noundef -2147483648)
  %51 = load i32, ptr %8, align 4
  %52 = add i32 %51, 1
  store i32 %52, ptr %8, align 4
  %53 = load ptr, ptr %11, align 8
  %54 = getelementptr inbounds nuw %struct._urb_info_t, ptr %53, i32 0, i32 11
  %55 = load ptr, ptr %54, align 8
  %56 = getelementptr inbounds nuw %struct._usb_conv_info_t, ptr %55, i32 0, i32 4
  %57 = load i16, ptr %56, align 8
  %58 = zext i16 %57 to i32
  %59 = icmp eq i32 %58, 32
  br i1 %59, label %60, label %68

60:                                               ; preds = %30
  %61 = load ptr, ptr %10, align 8
  %62 = load i32, ptr @hf_ac_if_input_csourceid, align 4
  %63 = load ptr, ptr %7, align 8
  %64 = load i32, ptr %8, align 4
  %65 = call ptr @proto_tree_add_item(ptr noundef %61, i32 noundef %62, ptr noundef %63, i32 noundef %64, i32 noundef 1, i32 noundef -2147483648)
  %66 = load i32, ptr %8, align 4
  %67 = add i32 %66, 1
  store i32 %67, ptr %8, align 4
  br label %68

68:                                               ; preds = %60, %30
  %69 = load ptr, ptr %10, align 8
  %70 = load i32, ptr @hf_ac_if_input_nrchannels, align 4
  %71 = load ptr, ptr %7, align 8
  %72 = load i32, ptr %8, align 4
  %73 = call ptr @proto_tree_add_item(ptr noundef %69, i32 noundef %70, ptr noundef %71, i32 noundef %72, i32 noundef 1, i32 noundef -2147483648)
  %74 = load i32, ptr %8, align 4
  %75 = add i32 %74, 1
  store i32 %75, ptr %8, align 4
  %76 = load ptr, ptr %11, align 8
  %77 = getelementptr inbounds nuw %struct._urb_info_t, ptr %76, i32 0, i32 11
  %78 = load ptr, ptr %77, align 8
  %79 = getelementptr inbounds nuw %struct._usb_conv_info_t, ptr %78, i32 0, i32 4
  %80 = load i16, ptr %79, align 8
  %81 = zext i16 %80 to i32
  %82 = icmp eq i32 %81, 0
  br i1 %82, label %83, label %92

83:                                               ; preds = %68
  %84 = load ptr, ptr %10, align 8
  %85 = load ptr, ptr %7, align 8
  %86 = load i32, ptr %8, align 4
  %87 = load i32, ptr @hf_ac_if_input_wchannelconfig, align 4
  %88 = load i32, ptr @ett_ac_if_input_wchannelconfig, align 4
  %89 = call ptr @proto_tree_add_bitmask(ptr noundef %84, ptr noundef %85, i32 noundef %86, i32 noundef %87, i32 noundef %88, ptr noundef @dissect_ac_if_input_terminal.input_wchannelconfig, i32 noundef -2147483648)
  %90 = load i32, ptr %8, align 4
  %91 = add i32 %90, 2
  store i32 %91, ptr %8, align 4
  br label %110

92:                                               ; preds = %68
  %93 = load ptr, ptr %11, align 8
  %94 = getelementptr inbounds nuw %struct._urb_info_t, ptr %93, i32 0, i32 11
  %95 = load ptr, ptr %94, align 8
  %96 = getelementptr inbounds nuw %struct._usb_conv_info_t, ptr %95, i32 0, i32 4
  %97 = load i16, ptr %96, align 8
  %98 = zext i16 %97 to i32
  %99 = icmp eq i32 %98, 32
  br i1 %99, label %100, label %109

100:                                              ; preds = %92
  %101 = load ptr, ptr %10, align 8
  %102 = load ptr, ptr %7, align 8
  %103 = load i32, ptr %8, align 4
  %104 = load i32, ptr @hf_ac_if_input_bmchannelconfig, align 4
  %105 = load i32, ptr @ett_ac_if_input_bmchannelconfig, align 4
  %106 = call ptr @proto_tree_add_bitmask(ptr noundef %101, ptr noundef %102, i32 noundef %103, i32 noundef %104, i32 noundef %105, ptr noundef @dissect_ac_if_input_terminal.input_bmchannelconfig, i32 noundef -2147483648)
  %107 = load i32, ptr %8, align 4
  %108 = add i32 %107, 4
  store i32 %108, ptr %8, align 4
  br label %109

109:                                              ; preds = %100, %92
  br label %110

110:                                              ; preds = %109, %83
  %111 = load ptr, ptr %10, align 8
  %112 = load i32, ptr @hf_ac_if_input_channelnames, align 4
  %113 = load ptr, ptr %7, align 8
  %114 = load i32, ptr %8, align 4
  %115 = call ptr @proto_tree_add_item(ptr noundef %111, i32 noundef %112, ptr noundef %113, i32 noundef %114, i32 noundef 1, i32 noundef -2147483648)
  %116 = load i32, ptr %8, align 4
  %117 = add i32 %116, 1
  store i32 %117, ptr %8, align 4
  %118 = load ptr, ptr %11, align 8
  %119 = getelementptr inbounds nuw %struct._urb_info_t, ptr %118, i32 0, i32 11
  %120 = load ptr, ptr %119, align 8
  %121 = getelementptr inbounds nuw %struct._usb_conv_info_t, ptr %120, i32 0, i32 4
  %122 = load i16, ptr %121, align 8
  %123 = zext i16 %122 to i32
  %124 = icmp eq i32 %123, 32
  br i1 %124, label %125, label %134

125:                                              ; preds = %110
  %126 = load ptr, ptr %10, align 8
  %127 = load ptr, ptr %7, align 8
  %128 = load i32, ptr %8, align 4
  %129 = load i32, ptr @hf_ac_if_input_controls, align 4
  %130 = load i32, ptr @ett_ac_if_input_controls, align 4
  %131 = call ptr @proto_tree_add_bitmask(ptr noundef %126, ptr noundef %127, i32 noundef %128, i32 noundef %129, i32 noundef %130, ptr noundef @dissect_ac_if_input_terminal.controls, i32 noundef -2147483648)
  %132 = load i32, ptr %8, align 4
  %133 = add i32 %132, 2
  store i32 %133, ptr %8, align 4
  br label %134

134:                                              ; preds = %125, %110
  %135 = load ptr, ptr %10, align 8
  %136 = load i32, ptr @hf_ac_if_input_terminal, align 4
  %137 = load ptr, ptr %7, align 8
  %138 = load i32, ptr %8, align 4
  %139 = call ptr @proto_tree_add_item(ptr noundef %135, i32 noundef %136, ptr noundef %137, i32 noundef %138, i32 noundef 1, i32 noundef -2147483648)
  %140 = load i32, ptr %8, align 4
  %141 = add i32 %140, 1
  store i32 %141, ptr %8, align 4
  %142 = load i32, ptr %8, align 4
  %143 = load i32, ptr %12, align 4
  %144 = sub i32 %142, %143
  store i32 %144, ptr %6, align 4
  store i32 1, ptr %13, align 4
  br label %145

145:                                              ; preds = %134, %29
  call void @llvm.lifetime.end.p0(i64 4, ptr %12) #11
  %146 = load i32, ptr %6, align 4
  ret i32 %146
}