; Function Attrs: null_pointer_is_valid sspstrong uwtable
define internal fastcc range(i32 0, 15) i32 @dissect_ac_if_input_terminal(ptr noundef %0, ptr noundef %1, ptr noundef readonly captures(none) %2) unnamed_addr #1 {
  %4 = getelementptr inbounds nuw i8, ptr %2, i64 40
  %5 = load ptr, ptr %4, align 8
  %6 = getelementptr inbounds nuw i8, ptr %5, i64 8
  %7 = load i16, ptr %6, align 8
  switch i16 %7, label %51 [
    i16 0, label %8
    i16 32, label %8
  ]

8:                                                ; preds = %3, %3
  %9 = load i32, ptr @hf_ac_if_input_terminalid, align 4
  %10 = tail call ptr @proto_tree_add_item(ptr noundef %1, i32 noundef %9, ptr noundef %0, i32 noundef 3, i32 noundef 1, i32 noundef -2147483648)
  %11 = load i32, ptr @hf_ac_if_input_terminaltype, align 4
  %12 = tail call ptr @proto_tree_add_item(ptr noundef %1, i32 noundef %11, ptr noundef %0, i32 noundef 4, i32 noundef 2, i32 noundef -2147483648)
  %13 = load i32, ptr @hf_ac_if_input_assocterminal, align 4
  %14 = tail call ptr @proto_tree_add_item(ptr noundef %1, i32 noundef %13, ptr noundef %0, i32 noundef 6, i32 noundef 1, i32 noundef -2147483648)
  %15 = load ptr, ptr %4, align 8
  %16 = getelementptr inbounds nuw i8, ptr %15, i64 8
  %17 = load i16, ptr %16, align 8
  %18 = icmp eq i16 %17, 32
  br i1 %18, label %19, label %22

19:                                               ; preds = %8
  %20 = load i32, ptr @hf_ac_if_input_csourceid, align 4
  %21 = tail call ptr @proto_tree_add_item(ptr noundef %1, i32 noundef %20, ptr noundef %0, i32 noundef 7, i32 noundef 1, i32 noundef -2147483648)
  br label %22

22:                                               ; preds = %19, %8
  %.049 = phi i32 [ 8, %19 ], [ 7, %8 ]
  %23 = load i32, ptr @hf_ac_if_input_nrchannels, align 4
  %24 = tail call ptr @proto_tree_add_item(ptr noundef %1, i32 noundef %23, ptr noundef %0, i32 noundef %.049, i32 noundef 1, i32 noundef -2147483648)
  %25 = add nuw nsw i32 %.049, 1
  %26 = load ptr, ptr %4, align 8
  %27 = getelementptr inbounds nuw i8, ptr %26, i64 8
  %28 = load i16, ptr %27, align 8
  switch i16 %28, label %34 [
    i16 0, label %.sink.split
    i16 32, label %29
  ]

29:                                               ; preds = %22
  br label %.sink.split

.sink.split:                                      ; preds = %22, %29
  %hf_ac_if_input_bmchannelconfig.sink = phi ptr [ @hf_ac_if_input_bmchannelconfig, %29 ], [ @hf_ac_if_input_wchannelconfig, %22 ]
  %ett_ac_if_input_bmchannelconfig.sink = phi ptr [ @ett_ac_if_input_bmchannelconfig, %29 ], [ @ett_ac_if_input_wchannelconfig, %22 ]
  %dissect_ac_if_input_terminal.input_bmchannelconfig.sink = phi ptr [ @dissect_ac_if_input_terminal.input_bmchannelconfig, %29 ], [ @dissect_ac_if_input_terminal.input_wchannelconfig, %22 ]
  %.sink = phi i32 [ 5, %29 ], [ 3, %22 ]
  %30 = load i32, ptr %hf_ac_if_input_bmchannelconfig.sink, align 4
  %31 = load i32, ptr %ett_ac_if_input_bmchannelconfig.sink, align 4
  %32 = tail call ptr @proto_tree_add_bitmask(ptr noundef %1, ptr noundef %0, i32 noundef %25, i32 noundef %30, i32 noundef %31, ptr noundef nonnull %dissect_ac_if_input_terminal.input_bmchannelconfig.sink, i32 noundef -2147483648)
  %33 = add nuw nsw i32 %.049, %.sink
  br label %34

34:                                               ; preds = %.sink.split, %22
  %.1 = phi i32 [ %25, %22 ], [ %33, %.sink.split ]
  %35 = load i32, ptr @hf_ac_if_input_channelnames, align 4
  %36 = tail call ptr @proto_tree_add_item(ptr noundef %1, i32 noundef %35, ptr noundef %0, i32 noundef %.1, i32 noundef 1, i32 noundef -2147483648)
  %37 = add nuw nsw i32 %.1, 1
  %38 = load ptr, ptr %4, align 8
  %39 = getelementptr inbounds nuw i8, ptr %38, i64 8
  %40 = load i16, ptr %39, align 8
  %41 = icmp eq i16 %40, 32
  br i1 %41, label %42, label %47

42:                                               ; preds = %34
  %43 = load i32, ptr @hf_ac_if_input_controls, align 4
  %44 = load i32, ptr @ett_ac_if_input_controls, align 4
  %45 = tail call ptr @proto_tree_add_bitmask(ptr noundef %1, ptr noundef %0, i32 noundef %37, i32 noundef %43, i32 noundef %44, ptr noundef nonnull @dissect_ac_if_input_terminal.controls, i32 noundef -2147483648)
  %46 = add nuw nsw i32 %.1, 3
  br label %47

47:                                               ; preds = %42, %34
  %.2 = phi i32 [ %46, %42 ], [ %37, %34 ]
  %48 = load i32, ptr @hf_ac_if_input_terminal, align 4
  %49 = tail call ptr @proto_tree_add_item(ptr noundef %1, i32 noundef %48, ptr noundef %0, i32 noundef %.2, i32 noundef 1, i32 noundef -2147483648)
  %50 = add nsw i32 %.2, -2
  br label %51

51:                                               ; preds = %3, %47
  %.0 = phi i32 [ %50, %47 ], [ 0, %3 ]
  ret i32 %.0
}